target datalayout = "e-m:e-p270:32:32-p271:32:32-p272:64:64-i64:64-i128:128-f80:128-n8:16:32:64-S128"
target triple = "x86_64-pc-linux-gnu"

%struct.dh_gen_ctx = type { ptr, ptr, i32, i32, i64, i64, ptr, i64, i32, i32, i32, i32, i32, i32, ptr, ptr, ptr, ptr, i32 }

@.str = private unnamed_addr constant [56 x i8] c"../openssl/providers/implementations/keymgmt/dh_kmgmt.c\00", align 1

; Function Attrs: nounwind uwtable
define internal ptr @dh_gen_init_base(ptr noundef %0, i32 noundef %1, ptr noundef %2, i32 noundef %3) #0 {
  %5 = alloca ptr, align 8
  %6 = alloca ptr, align 8
  %7 = alloca i32, align 4
  %8 = alloca ptr, align 8
  %9 = alloca i32, align 4
  %10 = alloca ptr, align 8
  %11 = alloca ptr, align 8
  %12 = alloca i32, align 4
  store ptr %0, ptr %6, align 8, !tbaa !3
  store i32 %1, ptr %7, align 4, !tbaa !9
  store ptr %2, ptr %8, align 8, !tbaa !11
  store i32 %3, ptr %9, align 4, !tbaa !9
  call void @llvm.lifetime.start.p0(i64 8, ptr %10) #8
  %13 = load ptr, ptr %6, align 8, !tbaa !3
  %14 = call ptr @ossl_prov_ctx_get0_libctx(ptr noundef %13)
  store ptr %14, ptr %10, align 8, !tbaa !55
  call void @llvm.lifetime.start.p0(i64 8, ptr %11) #8
  store ptr null, ptr %11, align 8, !tbaa !13
  %15 = call i32 @ossl_prov_is_running()
  %16 = icmp ne i32 %15, 0
  br i1 %16, label %18, label %17

17:                                               ; preds = %4
  store ptr null, ptr %5, align 8
  store i32 1, ptr %12, align 4
  br label %64

18:                                               ; preds = %4
  %19 = load i32, ptr %7, align 4, !tbaa !9
  %20 = and i32 %19, 7
  %21 = icmp eq i32 %20, 0
  br i1 %21, label %22, label %23

22:                                               ; preds = %18
  store ptr null, ptr %5, align 8
  store i32 1, ptr %12, align 4
  br label %64

23:                                               ; preds = %18
  %24 = call noalias ptr @CRYPTO_zalloc(i64 noundef 120, ptr noundef @.str, i32 noundef 460)
  store ptr %24, ptr %11, align 8, !tbaa !13
  %25 = icmp ne ptr %24, null
  br i1 %25, label %26, label %55

26:                                               ; preds = %23
  %27 = load i32, ptr %7, align 4, !tbaa !9
  %28 = load ptr, ptr %11, align 8, !tbaa !13
  %29 = getelementptr inbounds nuw %struct.dh_gen_ctx, ptr %28, i32 0, i32 2
  store i32 %27, ptr %29, align 8, !tbaa !37
  %30 = load ptr, ptr %10, align 8, !tbaa !55
  %31 = load ptr, ptr %11, align 8, !tbaa !13
  %32 = getelementptr inbounds nuw %struct.dh_gen_ctx, ptr %31, i32 0, i32 0
  store ptr %30, ptr %32, align 8, !tbaa !26
  %33 = load ptr, ptr %11, align 8, !tbaa !13
  %34 = getelementptr inbounds nuw %struct.dh_gen_ctx, ptr %33, i32 0, i32 4
  store i64 2048, ptr %34, align 8, !tbaa !25
  %35 = load ptr, ptr %11, align 8, !tbaa !13
  %36 = getelementptr inbounds nuw %struct.dh_gen_ctx, ptr %35, i32 0, i32 5
  store i64 224, ptr %36, align 8, !tbaa !39
  %37 = load ptr, ptr %11, align 8, !tbaa !13
  %38 = getelementptr inbounds nuw %struct.dh_gen_ctx, ptr %37, i32 0, i32 14
  store ptr null, ptr %38, align 8, !tbaa !33
  %39 = load i32, ptr %9, align 4, !tbaa !9
  %40 = icmp eq i32 %39, 4096
  %41 = select i1 %40, i32 1, i32 0
  %42 = load ptr, ptr %11, align 8, !tbaa !13
  %43 = getelementptr inbounds nuw %struct.dh_gen_ctx, ptr %42, i32 0, i32 9
  store i32 %41, ptr %43, align 4, !tbaa !24
  %44 = load ptr, ptr %11, align 8, !tbaa !13
  %45 = getelementptr inbounds nuw %struct.dh_gen_ctx, ptr %44, i32 0, i32 8
  store i32 -1, ptr %45, align 8, !tbaa !30
  %46 = load ptr, ptr %11, align 8, !tbaa !13
  %47 = getelementptr inbounds nuw %struct.dh_gen_ctx, ptr %46, i32 0, i32 12
  store i32 0, ptr %47, align 8, !tbaa !32
  %48 = load ptr, ptr %11, align 8, !tbaa !13
  %49 = getelementptr inbounds nuw %struct.dh_gen_ctx, ptr %48, i32 0, i32 11
  store i32 -1, ptr %49, align 4, !tbaa !31
  %50 = load ptr, ptr %11, align 8, !tbaa !13
  %51 = getelementptr inbounds nuw %struct.dh_gen_ctx, ptr %50, i32 0, i32 10
  store i32 2, ptr %51, align 8, !tbaa !38
  %52 = load i32, ptr %9, align 4, !tbaa !9
  %53 = load ptr, ptr %11, align 8, !tbaa !13
  %54 = getelementptr inbounds nuw %struct.dh_gen_ctx, ptr %53, i32 0, i32 18
  store i32 %52, ptr %54, align 8, !tbaa !45
  br label %55

55:                                               ; preds = %26, %23
  %56 = load ptr, ptr %11, align 8, !tbaa !13
  %57 = load ptr, ptr %8, align 8, !tbaa !11
  %58 = call i32 @dh_gen_set_params(ptr noundef %56, ptr noundef %57)
  %59 = icmp ne i32 %58, 0
  br i1 %59, label %62, label %60

60:                                               ; preds = %55
  %61 = load ptr, ptr %11, align 8, !tbaa !13
  call void @CRYPTO_free(ptr noundef %61, ptr noundef @.str, i32 noundef 482)
  store ptr null, ptr %11, align 8, !tbaa !13
  br label %62

62:                                               ; preds = %60, %55
  %63 = load ptr, ptr %11, align 8, !tbaa !13
  store ptr %63, ptr %5, align 8
  store i32 1, ptr %12, align 4
  br label %64

64:                                               ; preds = %62, %22, %17
  call void @llvm.lifetime.end.p0(i64 8, ptr %11) #8
  call void @llvm.lifetime.end.p0(i64 8, ptr %10) #8
  %65 = load ptr, ptr %5, align 8
  ret ptr %65
}

; Function Attrs: nounwind uwtable
define internal ptr @dhx_gen_init(ptr noundef %0, i32 noundef %1, ptr noundef %2) #0 {
  %4 = alloca ptr, align 8
  %5 = alloca i32, align 4
  %6 = alloca ptr, align 8
  store ptr %0, ptr %4, align 8, !tbaa !3
  store i32 %1, ptr %5, align 4, !tbaa !9
  store ptr %2, ptr %6, align 8, !tbaa !11
  %7 = load ptr, ptr %4, align 8, !tbaa !3
  %8 = load i32, ptr %5, align 4, !tbaa !9
  %9 = load ptr, ptr %6, align 8, !tbaa !11
  %10 = call ptr @dh_gen_init_base(ptr noundef %7, i32 noundef %8, ptr noundef %9, i32 noundef 4096)
  ret ptr %10
}